target datalayout = "e-m:e-p270:32:32-p271:32:32-p272:64:64-i64:64-i128:128-f80:128-n8:16:32:64-S128"
target triple = "x86_64-pc-linux-gnu"

%struct.formnode = type { i16, i16, i16, i32, i32, i32, i32, i16, i16, i16, i32, ptr, ptr, ptr, ptr, ptr, ptr, ptr, ptr, ptr, ptr, ptr }
%struct.fieldnode = type { i16, i16, i16, i16, i16, i32, i32, i32, i32, i16, i16, i16, i16, i32, i32, i32, i32, ptr, ptr, ptr, ptr, ptr, ptr, ptr, ptr }

; Function Attrs: nounwind uwtable
define internal ptr @After_End_Of_Data(ptr noundef %0, i32 noundef %1) #0 {
  %3 = alloca ptr, align 8
  %4 = alloca i32, align 4
  %5 = alloca ptr, align 8
  store ptr %0, ptr %3, align 8, !tbaa !55
  store i32 %1, ptr %4, align 4, !tbaa !35
  call void @llvm.lifetime.start.p0(i64 8, ptr %5) #9
  %6 = load ptr, ptr %3, align 8, !tbaa !55
  %7 = load i32, ptr %4, align 4, !tbaa !35
  %8 = sext i32 %7 to i64
  %9 = getelementptr inbounds i8, ptr %6, i64 %8
  store ptr %9, ptr %5, align 8, !tbaa !55
  br label %10

10:                                               ; preds = %22, %2
  %11 = load ptr, ptr %5, align 8, !tbaa !55
  %12 = load ptr, ptr %3, align 8, !tbaa !55
  %13 = icmp ugt ptr %11, %12
  br i1 %13, label %14, label %20

14:                                               ; preds = %10
  %15 = load ptr, ptr %5, align 8, !tbaa !55
  %16 = getelementptr inbounds i8, ptr %15, i64 -1
  %17 = load i8, ptr %16, align 1, !tbaa !65
  %18 = sext i8 %17 to i32
  %19 = icmp eq i32 %18, 32
  br label %20

20:                                               ; preds = %14, %10
  %21 = phi i1 [ false, %10 ], [ %19, %14 ]
  br i1 %21, label %22, label %25

22:                                               ; preds = %20
  %23 = load ptr, ptr %5, align 8, !tbaa !55
  %24 = getelementptr inbounds i8, ptr %23, i32 -1
  store ptr %24, ptr %5, align 8, !tbaa !55
  br label %10, !llvm.loop !116

25:                                               ; preds = %20
  %26 = load ptr, ptr %5, align 8, !tbaa !55
  call void @llvm.lifetime.end.p0(i64 8, ptr %5) #9
  ret ptr %26
}

; Function Attrs: nounwind uwtable
define internal zeroext i1 @Is_There_Room_For_A_Line(ptr noundef %0) #0 {
  %2 = alloca ptr, align 8
  %3 = alloca ptr, align 8
  %4 = alloca ptr, align 8
  %5 = alloca ptr, align 8
  store ptr %0, ptr %2, align 8, !tbaa !4
  call void @llvm.lifetime.start.p0(i64 8, ptr %3) #9
  %6 = load ptr, ptr %2, align 8, !tbaa !4
  %7 = getelementptr inbounds nuw %struct.formnode, ptr %6, i32 0, i32 15
  %8 = load ptr, ptr %7, align 8, !tbaa !16
  store ptr %8, ptr %3, align 8, !tbaa !17
  call void @llvm.lifetime.start.p0(i64 8, ptr %4) #9
  call void @llvm.lifetime.start.p0(i64 8, ptr %5) #9
  %9 = load ptr, ptr %2, align 8, !tbaa !4
  call void @Synchronize_Buffer(ptr noundef %9)
  %10 = load ptr, ptr %3, align 8, !tbaa !17
  %11 = getelementptr inbounds nuw %struct.fieldnode, ptr %10, i32 0, i32 23
  %12 = load ptr, ptr %11, align 8, !tbaa !54
  %13 = load ptr, ptr %3, align 8, !tbaa !17
  %14 = getelementptr inbounds nuw %struct.fieldnode, ptr %13, i32 0, i32 5
  %15 = load i32, ptr %14, align 4, !tbaa !27
  %16 = load ptr, ptr %3, align 8, !tbaa !17
  %17 = getelementptr inbounds nuw %struct.fieldnode, ptr %16, i32 0, i32 6
  %18 = load i32, ptr %17, align 8, !tbaa !29
  %19 = mul nsw i32 %15, %18
  %20 = add nsw i32 1, %19
  %21 = mul nsw i32 0, %20
  %22 = sext i32 %21 to i64
  %23 = getelementptr inbounds i8, ptr %12, i64 %22
  %24 = load ptr, ptr %3, align 8, !tbaa !17
  %25 = getelementptr inbounds nuw %struct.fieldnode, ptr %24, i32 0, i32 5
  %26 = load i32, ptr %25, align 4, !tbaa !27
  %27 = sub nsw i32 %26, 1
  %28 = load ptr, ptr %3, align 8, !tbaa !17
  %29 = getelementptr inbounds nuw %struct.fieldnode, ptr %28, i32 0, i32 6
  %30 = load i32, ptr %29, align 8, !tbaa !29
  %31 = mul nsw i32 %27, %30
  %32 = sext i32 %31 to i64
  %33 = getelementptr inbounds i8, ptr %23, i64 %32
  store ptr %33, ptr %4, align 8, !tbaa !55
  %34 = load ptr, ptr %4, align 8, !tbaa !55
  %35 = load ptr, ptr %3, align 8, !tbaa !17
  %36 = getelementptr inbounds nuw %struct.fieldnode, ptr %35, i32 0, i32 6
  %37 = load i32, ptr %36, align 8, !tbaa !29
  %38 = call ptr @After_End_Of_Data(ptr noundef %34, i32 noundef %37)
  store ptr %38, ptr %5, align 8, !tbaa !55
  %39 = load ptr, ptr %5, align 8, !tbaa !55
  %40 = load ptr, ptr %4, align 8, !tbaa !55
  %41 = icmp eq ptr %39, %40
  %42 = select i1 %41, i32 1, i32 0
  %43 = icmp ne i32 %42, 0
  call void @llvm.lifetime.end.p0(i64 8, ptr %5) #9
  call void @llvm.lifetime.end.p0(i64 8, ptr %4) #9
  call void @llvm.lifetime.end.p0(i64 8, ptr %3) #9
  ret i1 %43
}

; Function Attrs: nounwind uwtable
define internal i32 @FE_New_Line(ptr noundef %0) #0 {
  %2 = alloca i32, align 4
  %3 = alloca ptr, align 8
  %4 = alloca ptr, align 8
  %5 = alloca ptr, align 8
  %6 = alloca ptr, align 8
  %7 = alloca i8, align 1
  %8 = alloca i32, align 4
  %9 = alloca i8, align 1
  store ptr %0, ptr %3, align 8, !tbaa !4
  call void @llvm.lifetime.start.p0(i64 8, ptr %4) #9
  %10 = load ptr, ptr %3, align 8, !tbaa !4
  %11 = getelementptr inbounds nuw %struct.formnode, ptr %10, i32 0, i32 15
  %12 = load ptr, ptr %11, align 8, !tbaa !16
  store ptr %12, ptr %4, align 8, !tbaa !17
  call void @llvm.lifetime.start.p0(i64 8, ptr %5) #9
  call void @llvm.lifetime.start.p0(i64 8, ptr %6) #9
  call void @llvm.lifetime.start.p0(i64 1, ptr %7) #9
  %13 = load ptr, ptr %4, align 8, !tbaa !17
  %14 = getelementptr inbounds nuw %struct.fieldnode, ptr %13, i32 0, i32 5
  %15 = load i32, ptr %14, align 4, !tbaa !27
  %16 = sub nsw i32 %15, 1
  %17 = load ptr, ptr %3, align 8, !tbaa !4
  %18 = getelementptr inbounds nuw %struct.formnode, ptr %17, i32 0, i32 3
  %19 = load i32, ptr %18, align 8, !tbaa !21
  %20 = icmp eq i32 %16, %19
  %21 = zext i1 %20 to i8
  store i8 %21, ptr %7, align 1, !tbaa !58
  %22 = load ptr, ptr %3, align 8, !tbaa !4
  %23 = getelementptr inbounds nuw %struct.formnode, ptr %22, i32 0, i32 0
  %24 = load i16, ptr %23, align 8, !tbaa !47
  %25 = zext i16 %24 to i32
  %26 = and i32 %25, 4
  %27 = icmp ne i32 %26, 0
  br i1 %27, label %28, label %92

28:                                               ; preds = %1
  %29 = load i8, ptr %7, align 1, !tbaa !58, !range !60, !noundef !61
  %30 = trunc i8 %29 to i1
  br i1 %30, label %31, label %68

31:                                               ; preds = %28
  %32 = load ptr, ptr %4, align 8, !tbaa !17
  %33 = getelementptr inbounds nuw %struct.fieldnode, ptr %32, i32 0, i32 0
  %34 = load i16, ptr %33, align 8, !tbaa !37
  %35 = zext i16 %34 to i32
  %36 = and i32 %35, 8
  %37 = icmp ne i32 %36, 0
  br i1 %37, label %38, label %48

38:                                               ; preds = %31
  %39 = load ptr, ptr %4, align 8, !tbaa !17
  %40 = getelementptr inbounds nuw %struct.fieldnode, ptr %39, i32 0, i32 1
  %41 = load i16, ptr %40, align 2, !tbaa !28
  %42 = sext i16 %41 to i32
  %43 = load ptr, ptr %4, align 8, !tbaa !17
  %44 = getelementptr inbounds nuw %struct.fieldnode, ptr %43, i32 0, i32 8
  %45 = load i32, ptr %44, align 8, !tbaa !36
  %46 = add nsw i32 %42, %45
  %47 = icmp eq i32 %46, 1
  br i1 %47, label %48, label %68

48:                                               ; preds = %38, %31
  %49 = load ptr, ptr %3, align 8, !tbaa !4
  %50 = getelementptr inbounds nuw %struct.formnode, ptr %49, i32 0, i32 10
  %51 = load i32, ptr %50, align 8, !tbaa !107
  %52 = and i32 %51, 1
  %53 = icmp ne i32 %52, 0
  br i1 %53, label %55, label %54

54:                                               ; preds = %48
  store i32 -12, ptr %2, align 4
  store i32 1, ptr %8, align 4
  br label %236

55:                                               ; preds = %48
  %56 = load ptr, ptr %3, align 8, !tbaa !4
  %57 = getelementptr inbounds nuw %struct.formnode, ptr %56, i32 0, i32 13
  %58 = load ptr, ptr %57, align 8, !tbaa !9
  %59 = call i32 @wclrtoeol(ptr noundef %58)
  %60 = load ptr, ptr %3, align 8, !tbaa !4
  %61 = getelementptr inbounds nuw %struct.formnode, ptr %60, i32 0, i32 0
  %62 = load i16, ptr %61, align 8, !tbaa !47
  %63 = zext i16 %62 to i32
  %64 = or i32 %63, 16
  %65 = trunc i32 %64 to i16
  store i16 %65, ptr %61, align 8, !tbaa !47
  %66 = load ptr, ptr %3, align 8, !tbaa !4
  %67 = call i32 @Inter_Field_Navigation(ptr noundef @FN_Next_Field, ptr noundef %66)
  store i32 %67, ptr %2, align 4
  store i32 1, ptr %8, align 4
  br label %236

68:                                               ; preds = %38, %28
  %69 = load i8, ptr %7, align 1, !tbaa !58, !range !60, !noundef !61
  %70 = trunc i8 %69 to i1
  br i1 %70, label %71, label %75

71:                                               ; preds = %68
  %72 = load ptr, ptr %4, align 8, !tbaa !17
  %73 = call zeroext i1 @Field_Grown(ptr noundef %72, i32 noundef 1)
  br i1 %73, label %75, label %74

74:                                               ; preds = %71
  store i32 -1, ptr %2, align 4
  store i32 1, ptr %8, align 4
  br label %236

75:                                               ; preds = %71, %68
  %76 = load ptr, ptr %3, align 8, !tbaa !4
  %77 = getelementptr inbounds nuw %struct.formnode, ptr %76, i32 0, i32 13
  %78 = load ptr, ptr %77, align 8, !tbaa !9
  %79 = call i32 @wclrtoeol(ptr noundef %78)
  %80 = load ptr, ptr %3, align 8, !tbaa !4
  %81 = getelementptr inbounds nuw %struct.formnode, ptr %80, i32 0, i32 3
  %82 = load i32, ptr %81, align 8, !tbaa !21
  %83 = add nsw i32 %82, 1
  store i32 %83, ptr %81, align 8, !tbaa !21
  %84 = load ptr, ptr %3, align 8, !tbaa !4
  %85 = getelementptr inbounds nuw %struct.formnode, ptr %84, i32 0, i32 4
  store i32 0, ptr %85, align 4, !tbaa !22
  %86 = load ptr, ptr %3, align 8, !tbaa !4
  %87 = getelementptr inbounds nuw %struct.formnode, ptr %86, i32 0, i32 0
  %88 = load i16, ptr %87, align 8, !tbaa !47
  %89 = zext i16 %88 to i32
  %90 = or i32 %89, 16
  %91 = trunc i32 %90 to i16
  store i16 %91, ptr %87, align 8, !tbaa !47
  store i32 0, ptr %2, align 4
  store i32 1, ptr %8, align 4
  br label %236

92:                                               ; preds = %1
  %93 = load i8, ptr %7, align 1, !tbaa !58, !range !60, !noundef !61
  %94 = trunc i8 %93 to i1
  br i1 %94, label %95, label %122

95:                                               ; preds = %92
  %96 = load ptr, ptr %4, align 8, !tbaa !17
  %97 = getelementptr inbounds nuw %struct.fieldnode, ptr %96, i32 0, i32 0
  %98 = load i16, ptr %97, align 8, !tbaa !37
  %99 = zext i16 %98 to i32
  %100 = and i32 %99, 8
  %101 = icmp ne i32 %100, 0
  br i1 %101, label %102, label %112

102:                                              ; preds = %95
  %103 = load ptr, ptr %4, align 8, !tbaa !17
  %104 = getelementptr inbounds nuw %struct.fieldnode, ptr %103, i32 0, i32 1
  %105 = load i16, ptr %104, align 2, !tbaa !28
  %106 = sext i16 %105 to i32
  %107 = load ptr, ptr %4, align 8, !tbaa !17
  %108 = getelementptr inbounds nuw %struct.fieldnode, ptr %107, i32 0, i32 8
  %109 = load i32, ptr %108, align 8, !tbaa !36
  %110 = add nsw i32 %106, %109
  %111 = icmp eq i32 %110, 1
  br i1 %111, label %112, label %122

112:                                              ; preds = %102, %95
  %113 = load ptr, ptr %3, align 8, !tbaa !4
  %114 = getelementptr inbounds nuw %struct.formnode, ptr %113, i32 0, i32 10
  %115 = load i32, ptr %114, align 8, !tbaa !107
  %116 = and i32 %115, 1
  %117 = icmp ne i32 %116, 0
  br i1 %117, label %119, label %118

118:                                              ; preds = %112
  store i32 -12, ptr %2, align 4
  store i32 1, ptr %8, align 4
  br label %236

119:                                              ; preds = %112
  %120 = load ptr, ptr %3, align 8, !tbaa !4
  %121 = call i32 @Inter_Field_Navigation(ptr noundef @FN_Next_Field, ptr noundef %120)
  store i32 %121, ptr %2, align 4
  store i32 1, ptr %8, align 4
  br label %236

122:                                              ; preds = %102, %92
  call void @llvm.lifetime.start.p0(i64 1, ptr %9) #9
  %123 = load i8, ptr %7, align 1, !tbaa !58, !range !60, !noundef !61
  %124 = trunc i8 %123 to i1
  br i1 %124, label %128, label %125

125:                                              ; preds = %122
  %126 = load ptr, ptr %3, align 8, !tbaa !4
  %127 = call zeroext i1 @Is_There_Room_For_A_Line(ptr noundef %126)
  br label %128

128:                                              ; preds = %125, %122
  %129 = phi i1 [ false, %122 ], [ %127, %125 ]
  %130 = zext i1 %129 to i8
  store i8 %130, ptr %9, align 1, !tbaa !58
  %131 = load i8, ptr %9, align 1, !tbaa !58, !range !60, !noundef !61
  %132 = trunc i8 %131 to i1
  br i1 %132, label %141, label %133

133:                                              ; preds = %128
  %134 = load ptr, ptr %4, align 8, !tbaa !17
  %135 = getelementptr inbounds nuw %struct.fieldnode, ptr %134, i32 0, i32 0
  %136 = load i16, ptr %135, align 8, !tbaa !37
  %137 = zext i16 %136 to i32
  %138 = and i32 %137, 8
  %139 = icmp ne i32 %138, 0
  br i1 %139, label %141, label %140

140:                                              ; preds = %133
  store i32 -12, ptr %2, align 4
  store i32 1, ptr %8, align 4
  br label %235

141:                                              ; preds = %133, %128
  %142 = load i8, ptr %9, align 1, !tbaa !58, !range !60, !noundef !61
  %143 = trunc i8 %142 to i1
  br i1 %143, label %148, label %144

144:                                              ; preds = %141
  %145 = load ptr, ptr %4, align 8, !tbaa !17
  %146 = call zeroext i1 @Field_Grown(ptr noundef %145, i32 noundef 1)
  br i1 %146, label %148, label %147

147:                                              ; preds = %144
  store i32 -1, ptr %2, align 4
  store i32 1, ptr %8, align 4
  br label %235

148:                                              ; preds = %144, %141
  %149 = load ptr, ptr %3, align 8, !tbaa !4
  %150 = getelementptr inbounds nuw %struct.formnode, ptr %149, i32 0, i32 15
  %151 = load ptr, ptr %150, align 8, !tbaa !16
  %152 = getelementptr inbounds nuw %struct.fieldnode, ptr %151, i32 0, i32 23
  %153 = load ptr, ptr %152, align 8, !tbaa !54
  %154 = load ptr, ptr %3, align 8, !tbaa !4
  %155 = getelementptr inbounds nuw %struct.formnode, ptr %154, i32 0, i32 15
  %156 = load ptr, ptr %155, align 8, !tbaa !16
  %157 = getelementptr inbounds nuw %struct.fieldnode, ptr %156, i32 0, i32 5
  %158 = load i32, ptr %157, align 4, !tbaa !27
  %159 = load ptr, ptr %3, align 8, !tbaa !4
  %160 = getelementptr inbounds nuw %struct.formnode, ptr %159, i32 0, i32 15
  %161 = load ptr, ptr %160, align 8, !tbaa !16
  %162 = getelementptr inbounds nuw %struct.fieldnode, ptr %161, i32 0, i32 6
  %163 = load i32, ptr %162, align 8, !tbaa !29
  %164 = mul nsw i32 %158, %163
  %165 = add nsw i32 1, %164
  %166 = mul nsw i32 0, %165
  %167 = sext i32 %166 to i64
  %168 = getelementptr inbounds i8, ptr %153, i64 %167
  %169 = load ptr, ptr %3, align 8, !tbaa !4
  %170 = getelementptr inbounds nuw %struct.formnode, ptr %169, i32 0, i32 3
  %171 = load i32, ptr %170, align 8, !tbaa !21
  %172 = load ptr, ptr %3, align 8, !tbaa !4
  %173 = getelementptr inbounds nuw %struct.formnode, ptr %172, i32 0, i32 15
  %174 = load ptr, ptr %173, align 8, !tbaa !16
  %175 = getelementptr inbounds nuw %struct.fieldnode, ptr %174, i32 0, i32 6
  %176 = load i32, ptr %175, align 8, !tbaa !29
  %177 = mul nsw i32 %171, %176
  %178 = sext i32 %177 to i64
  %179 = getelementptr inbounds i8, ptr %168, i64 %178
  %180 = load ptr, ptr %3, align 8, !tbaa !4
  %181 = getelementptr inbounds nuw %struct.formnode, ptr %180, i32 0, i32 4
  %182 = load i32, ptr %181, align 4, !tbaa !22
  %183 = sext i32 %182 to i64
  %184 = getelementptr inbounds i8, ptr %179, i64 %183
  store ptr %184, ptr %5, align 8, !tbaa !55
  %185 = load ptr, ptr %5, align 8, !tbaa !55
  %186 = load ptr, ptr %4, align 8, !tbaa !17
  %187 = getelementptr inbounds nuw %struct.fieldnode, ptr %186, i32 0, i32 6
  %188 = load i32, ptr %187, align 8, !tbaa !29
  %189 = load ptr, ptr %3, align 8, !tbaa !4
  %190 = getelementptr inbounds nuw %struct.formnode, ptr %189, i32 0, i32 4
  %191 = load i32, ptr %190, align 4, !tbaa !22
  %192 = sub nsw i32 %188, %191
  %193 = call ptr @After_End_Of_Data(ptr noundef %185, i32 noundef %192)
  store ptr %193, ptr %6, align 8, !tbaa !55
  %194 = load ptr, ptr %3, align 8, !tbaa !4
  %195 = getelementptr inbounds nuw %struct.formnode, ptr %194, i32 0, i32 13
  %196 = load ptr, ptr %195, align 8, !tbaa !9
  %197 = call i32 @wclrtoeol(ptr noundef %196)
  %198 = load ptr, ptr %3, align 8, !tbaa !4
  %199 = getelementptr inbounds nuw %struct.formnode, ptr %198, i32 0, i32 3
  %200 = load i32, ptr %199, align 8, !tbaa !21
  %201 = add nsw i32 %200, 1
  store i32 %201, ptr %199, align 8, !tbaa !21
  %202 = load ptr, ptr %3, align 8, !tbaa !4
  %203 = getelementptr inbounds nuw %struct.formnode, ptr %202, i32 0, i32 4
  store i32 0, ptr %203, align 4, !tbaa !22
  %204 = load ptr, ptr %3, align 8, !tbaa !4
  %205 = getelementptr inbounds nuw %struct.formnode, ptr %204, i32 0, i32 13
  %206 = load ptr, ptr %205, align 8, !tbaa !9
  %207 = load ptr, ptr %3, align 8, !tbaa !4
  %208 = getelementptr inbounds nuw %struct.formnode, ptr %207, i32 0, i32 3
  %209 = load i32, ptr %208, align 8, !tbaa !21
  %210 = load ptr, ptr %3, align 8, !tbaa !4
  %211 = getelementptr inbounds nuw %struct.formnode, ptr %210, i32 0, i32 4
  %212 = load i32, ptr %211, align 4, !tbaa !22
  %213 = call i32 @wmove(ptr noundef %206, i32 noundef %209, i32 noundef %212)
  %214 = load ptr, ptr %3, align 8, !tbaa !4
  %215 = getelementptr inbounds nuw %struct.formnode, ptr %214, i32 0, i32 13
  %216 = load ptr, ptr %215, align 8, !tbaa !9
  %217 = call i32 @winsdelln(ptr noundef %216, i32 noundef 1)
  %218 = load ptr, ptr %3, align 8, !tbaa !4
  %219 = getelementptr inbounds nuw %struct.formnode, ptr %218, i32 0, i32 13
  %220 = load ptr, ptr %219, align 8, !tbaa !9
  %221 = load ptr, ptr %5, align 8, !tbaa !55
  %222 = load ptr, ptr %6, align 8, !tbaa !55
  %223 = load ptr, ptr %5, align 8, !tbaa !55
  %224 = ptrtoint ptr %222 to i64
  %225 = ptrtoint ptr %223 to i64
  %226 = sub i64 %224, %225
  %227 = trunc i64 %226 to i32
  %228 = call i32 @waddnstr(ptr noundef %220, ptr noundef %221, i32 noundef %227)
  %229 = load ptr, ptr %3, align 8, !tbaa !4
  %230 = getelementptr inbounds nuw %struct.formnode, ptr %229, i32 0, i32 0
  %231 = load i16, ptr %230, align 8, !tbaa !47
  %232 = zext i16 %231 to i32
  %233 = or i32 %232, 16
  %234 = trunc i32 %233 to i16
  store i16 %234, ptr %230, align 8, !tbaa !47
  store i32 0, ptr %2, align 4
  store i32 1, ptr %8, align 4
  br label %235

235:                                              ; preds = %148, %147, %140
  call void @llvm.lifetime.end.p0(i64 1, ptr %9) #9
  br label %236

236:                                              ; preds = %235, %119, %118, %75, %74, %55, %54
  call void @llvm.lifetime.end.p0(i64 1, ptr %7) #9
  call void @llvm.lifetime.end.p0(i64 8, ptr %6) #9
  call void @llvm.lifetime.end.p0(i64 8, ptr %5) #9
  call void @llvm.lifetime.end.p0(i64 8, ptr %4) #9
  %237 = load i32, ptr %2, align 4
  ret i32 %237
}