; Function Attrs: nounwind uwtable
define internal i32 @FE_New_Line(ptr noundef %0) #0 {
  %2 = getelementptr inbounds nuw i8, ptr %0, i64 72
  %3 = load ptr, ptr %2, align 8, !tbaa !14
  %4 = getelementptr inbounds nuw i8, ptr %3, i64 12
  %5 = load i32, ptr %4, align 4, !tbaa !24
  %6 = add nsw i32 %5, -1
  %7 = getelementptr inbounds nuw i8, ptr %0, i64 8
  %8 = load i32, ptr %7, align 8, !tbaa !17
  %9 = icmp eq i32 %6, %8
  %10 = load i16, ptr %0, align 8, !tbaa !45
  %11 = and i16 %10, 4
  %.not = icmp eq i16 %11, 0
  br i1 %.not, label %45, label %12

12:                                               ; preds = %1
  br i1 %9, label %13, label %.critedge

13:                                               ; preds = %12
  %14 = load i16, ptr %3, align 8, !tbaa !34
  %15 = and i16 %14, 8
  %.not54 = icmp eq i16 %15, 0
  br i1 %.not54, label %24, label %16

16:                                               ; preds = %13
  %17 = getelementptr inbounds nuw i8, ptr %3, i64 2
  %18 = load i16, ptr %17, align 2, !tbaa !25
  %19 = sext i16 %18 to i32
  %20 = getelementptr inbounds nuw i8, ptr %3, i64 24
  %21 = load i32, ptr %20, align 8, !tbaa !33
  %22 = add nsw i32 %21, %19
  %23 = icmp eq i32 %22, 1
  br i1 %23, label %24, label %35

24:                                               ; preds = %16, %13
  %25 = getelementptr inbounds nuw i8, ptr %0, i64 32
  %26 = load i32, ptr %25, align 8, !tbaa !100
  %27 = and i32 %26, 1
  %.not55 = icmp eq i32 %27, 0
  br i1 %.not55, label %124, label %28

28:                                               ; preds = %24
  %29 = getelementptr inbounds nuw i8, ptr %0, i64 56
  %30 = load ptr, ptr %29, align 8, !tbaa !4
  %31 = tail call i32 @wclrtoeol(ptr noundef %30) #13
  %32 = load i16, ptr %0, align 8, !tbaa !45
  %33 = or i16 %32, 16
  store i16 %33, ptr %0, align 8, !tbaa !45
  %34 = tail call i32 @Inter_Field_Navigation(ptr noundef nonnull @FN_Next_Field, ptr noundef nonnull %0)
  br label %124

35:                                               ; preds = %16
  %36 = tail call fastcc zeroext i1 @Field_Grown(ptr noundef nonnull %3, i32 noundef 1)
  br i1 %36, label %.critedge, label %124

.critedge:                                        ; preds = %12, %35
  %37 = getelementptr inbounds nuw i8, ptr %0, i64 56
  %38 = load ptr, ptr %37, align 8, !tbaa !4
  %39 = tail call i32 @wclrtoeol(ptr noundef %38) #13
  %40 = load i32, ptr %7, align 8, !tbaa !17
  %41 = add nsw i32 %40, 1
  store i32 %41, ptr %7, align 8, !tbaa !17
  %42 = getelementptr inbounds nuw i8, ptr %0, i64 12
  store i32 0, ptr %42, align 4, !tbaa !18
  %43 = load i16, ptr %0, align 8, !tbaa !45
  %44 = or i16 %43, 16
  store i16 %44, ptr %0, align 8, !tbaa !45
  br label %124

45:                                               ; preds = %1
  br i1 %9, label %46, label %.critedge57

46:                                               ; preds = %45
  %47 = load i16, ptr %3, align 8, !tbaa !34
  %48 = and i16 %47, 8
  %.not51 = icmp eq i16 %48, 0
  br i1 %.not51, label %57, label %49

49:                                               ; preds = %46
  %50 = getelementptr inbounds nuw i8, ptr %3, i64 2
  %51 = load i16, ptr %50, align 2, !tbaa !25
  %52 = sext i16 %51 to i32
  %53 = getelementptr inbounds nuw i8, ptr %3, i64 24
  %54 = load i32, ptr %53, align 8, !tbaa !33
  %55 = add nsw i32 %54, %52
  %56 = icmp eq i32 %55, 1
  br i1 %56, label %57, label %.thread.thread

57:                                               ; preds = %49, %46
  %58 = getelementptr inbounds nuw i8, ptr %0, i64 32
  %59 = load i32, ptr %58, align 8, !tbaa !100
  %60 = and i32 %59, 1
  %.not53 = icmp eq i32 %60, 0
  br i1 %.not53, label %124, label %61

61:                                               ; preds = %57
  %62 = tail call i32 @Inter_Field_Navigation(ptr noundef nonnull @FN_Next_Field, ptr noundef nonnull %0)
  br label %124

.critedge57:                                      ; preds = %45
  tail call fastcc void @Synchronize_Buffer(ptr noundef nonnull %0)
  %63 = getelementptr inbounds nuw i8, ptr %3, i64 104
  %64 = load ptr, ptr %63, align 8, !tbaa !52
  %65 = load i32, ptr %4, align 4, !tbaa !24
  %66 = getelementptr inbounds nuw i8, ptr %3, i64 16
  %67 = load i32, ptr %66, align 8, !tbaa !26
  %68 = add nsw i32 %65, -1
  %69 = mul nsw i32 %68, %67
  %70 = sext i32 %69 to i64
  %71 = getelementptr inbounds i8, ptr %64, i64 %70
  %72 = sext i32 %67 to i64
  %73 = getelementptr inbounds i8, ptr %71, i64 %72
  br label %74

74:                                               ; preds = %76, %.critedge57
  %.0.i.i = phi ptr [ %73, %.critedge57 ], [ %77, %76 ]
  %75 = icmp ugt ptr %.0.i.i, %71
  br i1 %75, label %76, label %80

76:                                               ; preds = %74
  %77 = getelementptr inbounds i8, ptr %.0.i.i, i64 -1
  %78 = load i8, ptr %77, align 1, !tbaa !54
  %79 = icmp eq i8 %78, 32
  br i1 %79, label %74, label %80, !llvm.loop !57

80:                                               ; preds = %76, %74
  %81 = icmp eq ptr %.0.i.i, %71
  br i1 %81, label %.critedge59, label %.thread

.thread:                                          ; preds = %80
  %.pre = load i16, ptr %3, align 8, !tbaa !34
  %.pre61 = and i16 %.pre, 8
  %82 = icmp eq i16 %.pre61, 0
  br i1 %82, label %124, label %.thread.thread

.thread.thread:                                   ; preds = %49, %.thread
  %83 = tail call fastcc zeroext i1 @Field_Grown(ptr noundef nonnull %3, i32 noundef 1)
  br i1 %83, label %..critedge59_crit_edge, label %124

..critedge59_crit_edge:                           ; preds = %.thread.thread
  %.phi.trans.insert = getelementptr inbounds nuw i8, ptr %3, i64 16
  %.pre60 = load i32, ptr %.phi.trans.insert, align 8, !tbaa !26
  br label %.critedge59

.critedge59:                                      ; preds = %..critedge59_crit_edge, %80
  %84 = phi i32 [ %.pre60, %..critedge59_crit_edge ], [ %67, %80 ]
  %85 = load ptr, ptr %2, align 8, !tbaa !14
  %86 = getelementptr inbounds nuw i8, ptr %85, i64 104
  %87 = load ptr, ptr %86, align 8, !tbaa !52
  %88 = getelementptr inbounds nuw i8, ptr %85, i64 16
  %89 = load i32, ptr %88, align 8, !tbaa !26
  %90 = load i32, ptr %7, align 8, !tbaa !17
  %91 = mul nsw i32 %90, %89
  %92 = sext i32 %91 to i64
  %93 = getelementptr inbounds i8, ptr %87, i64 %92
  %94 = getelementptr inbounds nuw i8, ptr %0, i64 12
  %95 = load i32, ptr %94, align 4, !tbaa !18
  %96 = sext i32 %95 to i64
  %97 = getelementptr inbounds i8, ptr %93, i64 %96
  %98 = sub nsw i32 %84, %95
  %99 = sext i32 %98 to i64
  %100 = getelementptr inbounds i8, ptr %97, i64 %99
  br label %101

101:                                              ; preds = %103, %.critedge59
  %.0.i = phi ptr [ %100, %.critedge59 ], [ %104, %103 ]
  %102 = icmp ugt ptr %.0.i, %97
  br i1 %102, label %103, label %After_End_Of_Data.exit

103:                                              ; preds = %101
  %104 = getelementptr inbounds i8, ptr %.0.i, i64 -1
  %105 = load i8, ptr %104, align 1, !tbaa !54
  %106 = icmp eq i8 %105, 32
  br i1 %106, label %101, label %After_End_Of_Data.exit, !llvm.loop !57

After_End_Of_Data.exit:                           ; preds = %101, %103
  %107 = getelementptr inbounds nuw i8, ptr %0, i64 56
  %108 = load ptr, ptr %107, align 8, !tbaa !4
  %109 = tail call i32 @wclrtoeol(ptr noundef %108) #13
  %110 = load i32, ptr %7, align 8, !tbaa !17
  %111 = add nsw i32 %110, 1
  store i32 %111, ptr %7, align 8, !tbaa !17
  store i32 0, ptr %94, align 4, !tbaa !18
  %112 = load ptr, ptr %107, align 8, !tbaa !4
  %113 = tail call i32 @wmove(ptr noundef %112, i32 noundef %111, i32 noundef 0) #13
  %114 = load ptr, ptr %107, align 8, !tbaa !4
  %115 = tail call i32 @winsdelln(ptr noundef %114, i32 noundef 1) #13
  %116 = load ptr, ptr %107, align 8, !tbaa !4
  %117 = ptrtoint ptr %.0.i to i64
  %118 = ptrtoint ptr %97 to i64
  %119 = sub i64 %117, %118
  %120 = trunc i64 %119 to i32
  %121 = tail call i32 @waddnstr(ptr noundef %116, ptr noundef %97, i32 noundef %120) #13
  %122 = load i16, ptr %0, align 8, !tbaa !45
  %123 = or i16 %122, 16
  store i16 %123, ptr %0, align 8, !tbaa !45
  br label %124

124:                                              ; preds = %After_End_Of_Data.exit, %.thread, %.thread.thread, %57, %35, %24, %61, %.critedge, %28
  %.0 = phi i32 [ %34, %28 ], [ 0, %.critedge ], [ %62, %61 ], [ -12, %24 ], [ -1, %35 ], [ -12, %57 ], [ 0, %After_End_Of_Data.exit ], [ -12, %.thread ], [ -1, %.thread.thread ]
  ret i32 %.0
}